target datalayout = "e-m:e-p270:32:32-p271:32:32-p272:64:64-i64:64-i128:128-f80:128-n8:16:32:64-S128"
target triple = "x86_64-pc-linux-gnu"

%struct.strvec = type { ptr, i64, i64 }
%struct.child_process = type { %struct.strvec, %struct.strvec, i32, i32, i64, ptr, ptr, i32, i32, i32, ptr, i16, ptr }

@.str.50 = private unnamed_addr constant [15 x i8] c"upload-archive\00", align 1

; Function Attrs: nounwind uwtable
define internal i32 @upload_archive(ptr noundef %0) #0 {
  %2 = alloca ptr, align 8
  %3 = alloca %struct.child_process, align 8
  store ptr %0, ptr %2, align 8, !tbaa !54
  call void @llvm.lifetime.start.p0(i64 120, ptr %3) #13
  call void @llvm.memcpy.p0.p0.i64(ptr align 8 %3, ptr align 8 @__const.upload_archive.cld, i64 120, i1 false)
  %4 = getelementptr inbounds nuw %struct.child_process, ptr %3, i32 0, i32 0
  %5 = call ptr @strvec_push(ptr noundef %4, ptr noundef @.str.50)
  %6 = getelementptr inbounds nuw %struct.child_process, ptr %3, i32 0, i32 1
  %7 = load ptr, ptr %2, align 8, !tbaa !54
  %8 = getelementptr inbounds nuw %struct.strvec, ptr %7, i32 0, i32 0
  %9 = load ptr, ptr %8, align 8, !tbaa !56
  call void @strvec_pushv(ptr noundef %6, ptr noundef %9)
  %10 = call i32 @run_service_command(ptr noundef %3)
  call void @llvm.lifetime.end.p0(i64 120, ptr %3) #13
  ret i32 %10
}