; Function Attrs: nounwind uwtable
define internal i32 @upload_archive(ptr noundef readonly captures(none) %0) #0 {
  %2 = alloca %struct.child_process, align 8
  call void @llvm.lifetime.start.p0(i64 120, ptr nonnull %2) #21
  call void @llvm.memcpy.p0.p0.i64(ptr noundef nonnull align 8 dereferenceable(120) %2, ptr noundef nonnull align 8 dereferenceable(120) @__const.handle.cld, i64 120, i1 false)
  %3 = call ptr @strvec_push(ptr noundef nonnull %2, ptr noundef nonnull @.str.50) #21
  %4 = getelementptr inbounds nuw i8, ptr %2, i64 24
  %5 = load ptr, ptr %0, align 8, !tbaa !84
  call void @strvec_pushv(ptr noundef nonnull %4, ptr noundef %5) #21
  %6 = call fastcc i32 @run_service_command(ptr noundef %2)
  call void @llvm.lifetime.end.p0(i64 120, ptr nonnull %2) #21
  ret i32 %6
}